target datalayout = "e-m:e-p270:32:32-p271:32:32-p272:64:64-i64:64-i128:128-f80:128-n8:16:32:64-S128"
target triple = "x86_64-pc-linux-gnu"

%"class.std::chrono::duration" = type { i64 }

; Function Attrs: mustprogress nounwind uwtable
define weak void @_ZN5folly13async_tracing23logSetGlobalCPUExecutorEPNS_8ExecutorE(ptr noundef %0) #0 {
  %2 = alloca ptr, align 8
  store ptr %0, ptr %2, align 8, !tbaa !7
  ret void
}

; Function Attrs: mustprogress nounwind uwtable
define weak void @_ZN5folly13async_tracing34logSetGlobalCPUExecutorToImmutableEv() #0 {
  ret void
}

; Function Attrs: mustprogress nounwind uwtable
define weak void @_ZN5folly13async_tracing23logGetGlobalCPUExecutorEPNS_8ExecutorE(ptr noundef %0) #0 {
  %2 = alloca ptr, align 8
  store ptr %0, ptr %2, align 8, !tbaa !7
  ret void
}

; Function Attrs: mustprogress nounwind uwtable
define weak void @_ZN5folly13async_tracing26logGetImmutableCPUExecutorEPNS_8ExecutorE(ptr noundef %0) #0 {
  %2 = alloca ptr, align 8
  store ptr %0, ptr %2, align 8, !tbaa !7
  ret void
}

; Function Attrs: mustprogress nounwind uwtable
define weak void @_ZN5folly13async_tracing22logSetGlobalIOExecutorEPNS_10IOExecutorE(ptr noundef %0) #0 {
  %2 = alloca ptr, align 8
  store ptr %0, ptr %2, align 8, !tbaa !12
  ret void
}

; Function Attrs: mustprogress nounwind uwtable
define weak void @_ZN5folly13async_tracing22logGetGlobalIOExecutorEPNS_10IOExecutorE(ptr noundef %0) #0 {
  %2 = alloca ptr, align 8
  store ptr %0, ptr %2, align 8, !tbaa !12
  ret void
}

; Function Attrs: mustprogress nounwind uwtable
define weak void @_ZN5folly13async_tracing25logGetImmutableIOExecutorEPNS_10IOExecutorE(ptr noundef %0) #0 {
  %2 = alloca ptr, align 8
  store ptr %0, ptr %2, align 8, !tbaa !12
  ret void
}

; Function Attrs: mustprogress nounwind uwtable
define weak void @_ZN5folly13async_tracing16logSemiFutureViaEPNS_8ExecutorES2_(ptr noundef %0, ptr noundef %1) #0 {
  %3 = alloca ptr, align 8
  %4 = alloca ptr, align 8
  store ptr %0, ptr %3, align 8, !tbaa !7
  store ptr %1, ptr %4, align 8, !tbaa !7
  ret void
}

; Function Attrs: mustprogress nounwind uwtable
define weak void @_ZN5folly13async_tracing12logFutureViaEPNS_8ExecutorES2_(ptr noundef %0, ptr noundef %1) #0 {
  %3 = alloca ptr, align 8
  %4 = alloca ptr, align 8
  store ptr %0, ptr %3, align 8, !tbaa !7
  store ptr %1, ptr %4, align 8, !tbaa !7
  ret void
}

; Function Attrs: mustprogress nounwind uwtable
define weak void @_ZN5folly13async_tracing20logBlockingOperationENSt6chrono8durationIlSt5ratioILl1ELl1000EEEE(i64 %0) #0 {
  %2 = alloca %"class.std::chrono::duration", align 8
  %3 = getelementptr inbounds nuw %"class.std::chrono::duration", ptr %2, i32 0, i32 0
  store i64 %0, ptr %3, align 8
  ret void
}

; Function Attrs: mustprogress nounwind uwtable
define weak void @_ZN5folly13async_tracing20logSemiFutureDiscardENS0_18DiscardHasDeferredE(i32 noundef %0) #0 {
  %2 = alloca i32, align 4
  store i32 %0, ptr %2, align 4, !tbaa !14
  ret void
}


!llvm.module.flags = !{!0, !1, !2, !3, !4, !5, !6}

!0 = !{i32 7, !"Dwarf Version", i32 5}
!1 = !{i32 2, !"Debug Info Version", i32 3}
!2 = !{i32 1, !"wchar_size", i32 4}
!3 = !{i32 7, !"openmp", i32 51}
!4 = !{i32 8, !"PIC Level", i32 2}
!5 = !{i32 7, !"uwtable", i32 2}
!6 = !{i32 7, !"debug-info-assignment-tracking", i1 true}
!7 = !{!8, !8, i64 0}
!8 = !{!"p1 _ZTSN5folly8ExecutorE", !9, i64 0}
!9 = !{!"any pointer", !10, i64 0}
!10 = !{!"omnipotent char", !11, i64 0}
!11 = !{!"Simple C++ TBAA"}
!12 = !{!13, !13, i64 0}
!13 = !{!"p1 _ZTSN5folly10IOExecutorE", !9, i64 0}
!14 = !{!15, !15, i64 0}
!15 = !{!"_ZTSN5folly13async_tracing18DiscardHasDeferredE", !10, i64 0}
